target datalayout = "e-m:e-p270:32:32-p271:32:32-p272:64:64-i64:64-i128:128-f80:128-n8:16:32:64-S128"
target triple = "x86_64-unknown-linux-gnu"

@_ZN6icu_75L12gKeyTypeDataE = internal constant [12 x i8] c"keyTypeData\00", align 1
@_ZN6icu_75L11gTypeMapTagE = internal constant [8 x i8] c"typeMap\00", align 1
@_ZN6icu_75L12gTimezoneTagE = internal constant [9 x i8] c"timezone\00", align 1

; Function Attrs: mustprogress uwtable
define noundef ptr @_ZN6icu_758ZoneMeta23getShortIDFromCanonicalEPKDs(ptr noundef %canonicalID) #0 align 2 {
entry:
  %canonicalID.addr = alloca ptr, align 8
  %shortID = alloca ptr, align 8
  %len = alloca i32, align 4
  %tzidKey = alloca [129 x i8], align 16
  %p = alloca ptr, align 8
  %status = alloca i32, align 4
  %rb = alloca ptr, align 8
  store ptr %canonicalID, ptr %canonicalID.addr, align 8
  store ptr null, ptr %shortID, align 8
  %0 = load ptr, ptr %canonicalID.addr, align 8
  %call = call i32 @u_strlen_75(ptr noundef %0)
  store i32 %call, ptr %len, align 4
  %1 = load ptr, ptr %canonicalID.addr, align 8
  %arraydecay = getelementptr inbounds [129 x i8], ptr %tzidKey, i64 0, i64 0
  %2 = load i32, ptr %len, align 4
  call void @u_UCharsToChars_75(ptr noundef %1, ptr noundef %arraydecay, i32 noundef %2)
  %3 = load i32, ptr %len, align 4
  %idxprom = sext i32 %3 to i64
  %arrayidx = getelementptr inbounds [129 x i8], ptr %tzidKey, i64 0, i64 %idxprom
  store i8 0, ptr %arrayidx, align 1
  %arraydecay1 = getelementptr inbounds [129 x i8], ptr %tzidKey, i64 0, i64 0
  store ptr %arraydecay1, ptr %p, align 8
  br label %while.cond

while.cond:                                       ; preds = %if.end, %entry
  %4 = load ptr, ptr %p, align 8
  %incdec.ptr = getelementptr inbounds i8, ptr %4, i32 1
  store ptr %incdec.ptr, ptr %p, align 8
  %5 = load i8, ptr %4, align 1
  %tobool = icmp ne i8 %5, 0
  br i1 %tobool, label %while.body, label %while.end

while.body:                                       ; preds = %while.cond
  %6 = load ptr, ptr %p, align 8
  %7 = load i8, ptr %6, align 1
  %conv = sext i8 %7 to i32
  %cmp = icmp eq i32 %conv, 47
  br i1 %cmp, label %if.then, label %if.end

if.then:                                          ; preds = %while.body
  %8 = load ptr, ptr %p, align 8
  store i8 58, ptr %8, align 1
  br label %if.end

if.end:                                           ; preds = %if.then, %while.body
  br label %while.cond, !llvm.loop !18

while.end:                                        ; preds = %while.cond
  store i32 0, ptr %status, align 4
  %call2 = call ptr @ures_openDirect_75(ptr noundef null, ptr noundef @_ZN6icu_75L12gKeyTypeDataE, ptr noundef %status)
  store ptr %call2, ptr %rb, align 8
  %9 = load ptr, ptr %rb, align 8
  %10 = load ptr, ptr %rb, align 8
  %call3 = call ptr @ures_getByKey_75(ptr noundef %9, ptr noundef @_ZN6icu_75L11gTypeMapTagE, ptr noundef %10, ptr noundef %status)
  %11 = load ptr, ptr %rb, align 8
  %12 = load ptr, ptr %rb, align 8
  %call4 = call ptr @ures_getByKey_75(ptr noundef %11, ptr noundef @_ZN6icu_75L12gTimezoneTagE, ptr noundef %12, ptr noundef %status)
  %13 = load ptr, ptr %rb, align 8
  %arraydecay5 = getelementptr inbounds [129 x i8], ptr %tzidKey, i64 0, i64 0
  %call6 = call ptr @ures_getStringByKey_75(ptr noundef %13, ptr noundef %arraydecay5, ptr noundef null, ptr noundef %status)
  store ptr %call6, ptr %shortID, align 8
  %14 = load ptr, ptr %rb, align 8
  call void @ures_close_75(ptr noundef %14)
  %15 = load ptr, ptr %shortID, align 8
  ret ptr %15
}