; Function Attrs: mustprogress uwtable
define noundef ptr @_ZN6icu_758ZoneMeta23getShortIDFromCanonicalEPKDs(ptr noundef %canonicalID) local_unnamed_addr #0 align 2 {
entry:
  %tzidKey = alloca [129 x i8], align 16
  %status = alloca i32, align 4
  %call = tail call i32 @u_strlen_75(ptr noundef %canonicalID)
  call void @u_UCharsToChars_75(ptr noundef %canonicalID, ptr noundef nonnull %tzidKey, i32 noundef %call)
  %idxprom = sext i32 %call to i64
  %arrayidx = getelementptr inbounds [129 x i8], ptr %tzidKey, i64 0, i64 %idxprom
  store i8 0, ptr %arrayidx, align 1
  %0 = load i8, ptr %tzidKey, align 16
  %tobool.not11 = icmp eq i8 %0, 0
  br i1 %tobool.not11, label %while.end, label %while.body.preheader

while.body.preheader:                             ; preds = %entry
  %incdec.ptr10 = getelementptr inbounds i8, ptr %tzidKey, i64 1
  br label %while.body

while.body:                                       ; preds = %while.body.preheader, %if.end
  %incdec.ptr12 = phi ptr [ %incdec.ptr, %if.end ], [ %incdec.ptr10, %while.body.preheader ]
  %1 = load i8, ptr %incdec.ptr12, align 1
  %cmp = icmp eq i8 %1, 47
  br i1 %cmp, label %if.then, label %if.end

if.then:                                          ; preds = %while.body
  store i8 58, ptr %incdec.ptr12, align 1
  br label %if.end

if.end:                                           ; preds = %if.then, %while.body
  %2 = phi i8 [ 58, %if.then ], [ %1, %while.body ]
  %incdec.ptr = getelementptr inbounds i8, ptr %incdec.ptr12, i64 1
  %tobool.not = icmp eq i8 %2, 0
  br i1 %tobool.not, label %while.end, label %while.body, !llvm.loop !17

while.end:                                        ; preds = %if.end, %entry
  store i32 0, ptr %status, align 4
  %call2 = call ptr @ures_openDirect_75(ptr noundef null, ptr noundef nonnull @_ZN6icu_75L12gKeyTypeDataE, ptr noundef nonnull %status)
  %call3 = call ptr @ures_getByKey_75(ptr noundef %call2, ptr noundef nonnull @_ZN6icu_75L11gTypeMapTagE, ptr noundef %call2, ptr noundef nonnull %status)
  %call4 = call ptr @ures_getByKey_75(ptr noundef %call2, ptr noundef nonnull @_ZN6icu_75L12gTimezoneTagE, ptr noundef %call2, ptr noundef nonnull %status)
  %call6 = call ptr @ures_getStringByKey_75(ptr noundef %call2, ptr noundef nonnull %tzidKey, ptr noundef null, ptr noundef nonnull %status)
  call void @ures_close_75(ptr noundef %call2)
  ret ptr %call6
}